target datalayout = "e-m:e-p270:32:32-p271:32:32-p272:64:64-i64:64-i128:128-f80:128-n8:16:32:64-S128"
target triple = "x86_64-pc-linux-gnu"

%struct.VHeader_ = type { i32, i32, [0 x i8] }
%struct.BuildOptions_ = type { [1024 x ptr], i32, [1024 x ptr], i32, [1024 x ptr], i32, [1024 x ptr], i32, [1024 x ptr], i32, ptr, %struct.anon.100, %struct.anon.101, %struct.anon.102, i32, ptr, ptr, ptr, ptr, ptr, ptr, ptr, ptr, ptr, i32, ptr, i32, i32, i32, i32, i32, i32, [18 x i32], i32, i32, i32, i32, i32, i8, i8, i8, i8, i8, i8, i8, i8, i8, ptr, ptr, ptr, ptr, ptr, ptr, ptr, ptr, ptr, i32, i32, i32, i32, i32, i32, i32, i32, i32, i32, i32, i32, i8, i8, i8, i8, i8, i8, i8, i8, i8, i8, i8 }
%struct.anon.100 = type { ptr, ptr, i32 }
%struct.anon.101 = type { ptr, ptr, ptr }
%struct.anon.102 = type { ptr, ptr }

@.str.44 = private unnamed_addr constant [47 x i8] c"/c3lang/vendor/releases/download/latest/%s.c3l\00", align 1
@.str.45 = private unnamed_addr constant [25 x i8] c"Fetching library '%s'...\00", align 1
@stdout = external global ptr, align 8
@.str.46 = private unnamed_addr constant [19 x i8] c"https://github.com\00", align 1
@.str.47 = private unnamed_addr constant [7 x i8] c"%s.c3l\00", align 1
@.str.48 = private unnamed_addr constant [4 x i8] c"ok.\00", align 1
@.str.49 = private unnamed_addr constant [14 x i8] c"FAILED: '%s'\0A\00", align 1
@.str.50 = private unnamed_addr constant [41 x i8] c"Error: Failed to download any libraries.\00", align 1
@.str.51 = private unnamed_addr constant [44 x i8] c"Error: Only some libraries were downloaded.\00", align 1

; Function Attrs: nounwind uwtable
define dso_local void @vendor_fetch(ptr noundef %0) #0 {
  %2 = alloca i32, align 4
  %3 = alloca ptr, align 8
  %4 = alloca ptr, align 8
  %5 = alloca i32, align 4
  %6 = alloca ptr, align 8
  %7 = alloca ptr, align 8
  %8 = alloca ptr, align 8
  %9 = alloca i32, align 4
  %10 = alloca ptr, align 8
  %11 = alloca i32, align 4
  %12 = alloca i32, align 4
  %13 = alloca ptr, align 8
  %14 = alloca ptr, align 8
  %15 = alloca ptr, align 8
  store ptr %0, ptr %8, align 8
  store i32 0, ptr %9, align 4
  %16 = load ptr, ptr %8, align 8
  %17 = getelementptr inbounds %struct.BuildOptions_, ptr %16, i32 0, i32 15
  %18 = load ptr, ptr %17, align 8
  store ptr %18, ptr %10, align 8
  %19 = load ptr, ptr %10, align 8
  store ptr %19, ptr %3, align 8
  %20 = load ptr, ptr %3, align 8
  %21 = icmp ne ptr %20, null
  br i1 %21, label %23, label %22

22:                                               ; preds = %1
  store i32 0, ptr %2, align 4
  br label %28

23:                                               ; preds = %1
  %24 = load ptr, ptr %3, align 8
  store ptr %24, ptr %4, align 8
  %25 = load ptr, ptr %4, align 8
  %26 = getelementptr inbounds %struct.VHeader_, ptr %25, i64 -1
  %27 = load i32, ptr %26, align 4
  store i32 %27, ptr %2, align 4
  br label %28

28:                                               ; preds = %23, %22
  %29 = load i32, ptr %2, align 4
  store i32 %29, ptr %11, align 4
  store i32 0, ptr %12, align 4
  br label %30

30:                                               ; preds = %60, %28
  %31 = load i32, ptr %12, align 4
  %32 = load i32, ptr %11, align 4
  %33 = icmp ult i32 %31, %32
  br i1 %33, label %34, label %63

34:                                               ; preds = %30
  %35 = load ptr, ptr %10, align 8
  %36 = load i32, ptr %12, align 4
  %37 = zext i32 %36 to i64
  %38 = getelementptr inbounds ptr, ptr %35, i64 %37
  %39 = load ptr, ptr %38, align 8
  store ptr %39, ptr %13, align 8
  %40 = load ptr, ptr %13, align 8
  %41 = call ptr (ptr, ...) @str_printf(ptr noundef @.str.44, ptr noundef %40)
  store ptr %41, ptr %14, align 8
  %42 = load ptr, ptr %13, align 8
  %43 = call i32 (ptr, ...) @printf(ptr noundef @.str.45, ptr noundef %42)
  %44 = load ptr, ptr @stdout, align 8
  %45 = call i32 @fflush(ptr noundef %44)
  %46 = load ptr, ptr %14, align 8
  %47 = load ptr, ptr %13, align 8
  %48 = call ptr (ptr, ...) @str_printf(ptr noundef @.str.47, ptr noundef %47)
  %49 = call ptr @download_file(ptr noundef @.str.46, ptr noundef %46, ptr noundef %48)
  store ptr %49, ptr %15, align 8
  %50 = load ptr, ptr %15, align 8
  %51 = icmp ne ptr %50, null
  br i1 %51, label %56, label %52

52:                                               ; preds = %34
  %53 = call i32 @puts(ptr noundef @.str.48)
  %54 = load i32, ptr %9, align 4
  %55 = add i32 %54, 1
  store i32 %55, ptr %9, align 4
  br label %59

56:                                               ; preds = %34
  %57 = load ptr, ptr %15, align 8
  %58 = call i32 (ptr, ...) @printf(ptr noundef @.str.49, ptr noundef %57)
  br label %59

59:                                               ; preds = %56, %52
  br label %60

60:                                               ; preds = %59
  %61 = load i32, ptr %12, align 4
  %62 = add i32 %61, 1
  store i32 %62, ptr %12, align 4
  br label %30, !llvm.loop !17

63:                                               ; preds = %30
  br label %64

64:                                               ; preds = %63
  br label %65

65:                                               ; preds = %64
  %66 = load i32, ptr %9, align 4
  %67 = icmp eq i32 %66, 0
  br i1 %67, label %68, label %69

68:                                               ; preds = %65
  call void (ptr, ...) @error_exit(ptr noundef @.str.50) #8
  unreachable

69:                                               ; preds = %65
  %70 = load i32, ptr %9, align 4
  %71 = load ptr, ptr %8, align 8
  %72 = getelementptr inbounds %struct.BuildOptions_, ptr %71, i32 0, i32 15
  %73 = load ptr, ptr %72, align 8
  store ptr %73, ptr %6, align 8
  %74 = load ptr, ptr %6, align 8
  %75 = icmp ne ptr %74, null
  br i1 %75, label %77, label %76

76:                                               ; preds = %69
  store i32 0, ptr %5, align 4
  br label %82

77:                                               ; preds = %69
  %78 = load ptr, ptr %6, align 8
  store ptr %78, ptr %7, align 8
  %79 = load ptr, ptr %7, align 8
  %80 = getelementptr inbounds %struct.VHeader_, ptr %79, i64 -1
  %81 = load i32, ptr %80, align 4
  store i32 %81, ptr %5, align 4
  br label %82

82:                                               ; preds = %77, %76
  %83 = load i32, ptr %5, align 4
  %84 = icmp ult i32 %70, %83
  br i1 %84, label %85, label %86

85:                                               ; preds = %82
  call void (ptr, ...) @error_exit(ptr noundef @.str.51) #8
  unreachable

86:                                               ; preds = %82
  ret void
}