; Function Attrs: nounwind uwtable
define dso_local void @vendor_fetch(ptr nocapture noundef readonly %0) local_unnamed_addr #0 {
  %2 = getelementptr inbounds i8, ptr %0, i64 41080
  %3 = load ptr, ptr %2, align 8
  %.not = icmp eq ptr %3, null
  br i1 %.not, label %._crit_edge.thread, label %4

4:                                                ; preds = %1
  %5 = getelementptr inbounds i8, ptr %3, i64 -8
  %6 = load i32, ptr %5, align 4
  %.not34 = icmp eq i32 %6, 0
  br i1 %.not34, label %._crit_edge.thread, label %.lr.ph.preheader

.lr.ph.preheader:                                 ; preds = %4
  %wide.trip.count = zext i32 %6 to i64
  br label %.lr.ph

.lr.ph:                                           ; preds = %.lr.ph.preheader, %20
  %indvars.iv = phi i64 [ 0, %.lr.ph.preheader ], [ %indvars.iv.next, %20 ]
  %.02533 = phi i32 [ 0, %.lr.ph.preheader ], [ %.1, %20 ]
  %7 = getelementptr inbounds ptr, ptr %3, i64 %indvars.iv
  %8 = load ptr, ptr %7, align 8
  %9 = tail call ptr (ptr, ...) @str_printf(ptr noundef nonnull @.str.44, ptr noundef %8) #20
  %10 = tail call i32 (ptr, ...) @printf(ptr noundef nonnull dereferenceable(1) @.str.45, ptr noundef %8)
  %11 = load ptr, ptr @stdout, align 8
  %12 = tail call i32 @fflush(ptr noundef %11)
  %13 = tail call ptr (ptr, ...) @str_printf(ptr noundef nonnull @.str.47, ptr noundef %8) #20
  %14 = tail call ptr @download_file(ptr noundef nonnull @.str.46, ptr noundef %9, ptr noundef %13) #20
  %.not31 = icmp eq ptr %14, null
  br i1 %.not31, label %15, label %18

15:                                               ; preds = %.lr.ph
  %16 = tail call i32 @puts(ptr noundef nonnull dereferenceable(1) @.str.48)
  %17 = add i32 %.02533, 1
  br label %20

18:                                               ; preds = %.lr.ph
  %19 = tail call i32 (ptr, ...) @printf(ptr noundef nonnull dereferenceable(1) @.str.49, ptr noundef nonnull %14)
  br label %20

20:                                               ; preds = %15, %18
  %.1 = phi i32 [ %.02533, %18 ], [ %17, %15 ]
  %indvars.iv.next = add nuw nsw i64 %indvars.iv, 1
  %exitcond.not = icmp eq i64 %indvars.iv.next, %wide.trip.count
  br i1 %exitcond.not, label %._crit_edge, label %.lr.ph, !llvm.loop !17

._crit_edge:                                      ; preds = %20
  %21 = icmp eq i32 %.1, 0
  br i1 %21, label %._crit_edge.thread, label %22

._crit_edge.thread:                               ; preds = %1, %4, %._crit_edge
  tail call void (ptr, ...) @error_exit(ptr noundef nonnull @.str.50) #21
  unreachable

22:                                               ; preds = %._crit_edge
  %23 = load ptr, ptr %2, align 8
  %.not30 = icmp eq ptr %23, null
  br i1 %.not30, label %27, label %24

24:                                               ; preds = %22
  %25 = getelementptr inbounds i8, ptr %23, i64 -8
  %26 = load i32, ptr %25, align 4
  br label %27

27:                                               ; preds = %22, %24
  %.024 = phi i32 [ %26, %24 ], [ 0, %22 ]
  %28 = icmp ult i32 %.1, %.024
  br i1 %28, label %29, label %30

29:                                               ; preds = %27
  tail call void (ptr, ...) @error_exit(ptr noundef nonnull @.str.51) #21
  unreachable

30:                                               ; preds = %27
  ret void
}